; Function Attrs: mustprogress nounwind uwtable
define dso_local void @_ZN4llvm12MachineInstr11copyIRFlagsERKNS_11InstructionE(ptr nocapture noundef nonnull align 8 dereferenceable(70) %0, ptr noundef nonnull align 8 dereferenceable(72) %1) local_unnamed_addr #0 align 2 {
  %3 = tail call noundef i32 @_ZN4llvm12MachineInstr24copyFlagsFromInstructionERKNS_11InstructionE(ptr noundef nonnull align 8 dereferenceable(72) %1)
  %4 = getelementptr inbounds nuw i8, ptr %0, i64 44
  %5 = load i32, ptr %4, align 4
  %6 = and i32 %5, -16777216
  %7 = or disjoint i32 %6, %3
  store i32 %7, ptr %4, align 4
  ret void
}